target datalayout = "e-m:e-p270:32:32-p271:32:32-p272:64:64-i64:64-i128:128-f80:128-n8:16:32:64-S128"
target triple = "x86_64-pc-linux-gnu"

%struct._zend_op_array = type { i8, [3 x i8], i32, ptr, ptr, ptr, i32, i32, ptr, ptr, ptr, ptr, i32, ptr, i32, i32, i32, ptr, ptr, ptr, ptr, ptr, i32, i32, ptr, ptr, ptr, i32, i32, i32, i32, ptr, ptr, [6 x ptr] }
%struct._zend_func_info = type { i32, i32, %struct._zend_ssa, ptr, ptr, ptr, %struct._zend_ssa_var_info }
%struct._zend_ssa = type { %struct._zend_cfg, i32, i32, ptr, ptr, ptr, ptr }
%struct._zend_cfg = type { i32, i32, ptr, ptr, ptr, i32 }
%struct._zend_ssa_var_info = type { i32, i8, %struct._zend_ssa_range, ptr }
%struct._zend_ssa_range = type { i64, i64, i8, i8 }
%struct._zend_ssa_op = type { i32, i32, i32, i32, i32, i32, i32, i32, i32 }
%struct._zend_ssa_var = type { i32, i32, i32, i32, ptr, ptr, ptr, i8 }
%struct._zend_ssa_phi = type { ptr, i32, %union._zend_ssa_pi_constraint, i32, i32, i32, i8, ptr, ptr, ptr }
%union._zend_ssa_pi_constraint = type { %struct._zend_ssa_range_constraint }
%struct._zend_ssa_range_constraint = type { %struct._zend_ssa_range, i32, i32, i32, i32, i32 }

@zend_func_info_rid = external global i32, align 4

; Function Attrs: nounwind uwtable
define internal zeroext i1 @needs_live_range(ptr noundef %0, ptr noundef %1) #0 {
  %3 = alloca i1, align 1
  %4 = alloca ptr, align 8
  %5 = alloca ptr, align 8
  %6 = alloca ptr, align 8
  %7 = alloca ptr, align 8
  %8 = alloca i32, align 4
  %9 = alloca i32, align 4
  %10 = alloca i32, align 4
  store ptr %0, ptr %4, align 8, !tbaa !98
  store ptr %1, ptr %5, align 8, !tbaa !100
  call void @llvm.lifetime.start.p0(i64 8, ptr %6) #13
  %11 = load ptr, ptr %4, align 8, !tbaa !98
  %12 = getelementptr inbounds nuw %struct._zend_op_array, ptr %11, i32 0, i32 33
  %13 = load i32, ptr @zend_func_info_rid, align 4, !tbaa !29
  %14 = sext i32 %13 to i64
  %15 = getelementptr inbounds [6 x ptr], ptr %12, i64 0, i64 %14
  %16 = load ptr, ptr %15, align 8, !tbaa !28
  store ptr %16, ptr %6, align 8, !tbaa !187
  call void @llvm.lifetime.start.p0(i64 8, ptr %7) #13
  %17 = load ptr, ptr %6, align 8, !tbaa !187
  %18 = getelementptr inbounds nuw %struct._zend_func_info, ptr %17, i32 0, i32 2
  %19 = getelementptr inbounds nuw %struct._zend_ssa, ptr %18, i32 0, i32 4
  %20 = load ptr, ptr %19, align 8, !tbaa !229
  %21 = load ptr, ptr %5, align 8, !tbaa !100
  %22 = load ptr, ptr %4, align 8, !tbaa !98
  %23 = getelementptr inbounds nuw %struct._zend_op_array, ptr %22, i32 0, i32 17
  %24 = load ptr, ptr %23, align 8, !tbaa !119
  %25 = ptrtoint ptr %21 to i64
  %26 = ptrtoint ptr %24 to i64
  %27 = sub i64 %25, %26
  %28 = sdiv exact i64 %27, 32
  %29 = getelementptr inbounds %struct._zend_ssa_op, ptr %20, i64 %28
  store ptr %29, ptr %7, align 8, !tbaa !226
  call void @llvm.lifetime.start.p0(i64 4, ptr %8) #13
  %30 = load ptr, ptr %7, align 8, !tbaa !226
  %31 = getelementptr inbounds nuw %struct._zend_ssa_op, ptr %30, i32 0, i32 5
  %32 = load i32, ptr %31, align 4, !tbaa !230
  store i32 %32, ptr %8, align 4, !tbaa !29
  %33 = load i32, ptr %8, align 4, !tbaa !29
  %34 = icmp slt i32 %33, 0
  br i1 %34, label %35, label %36

35:                                               ; preds = %2
  store i1 true, ptr %3, align 1
  store i32 1, ptr %9, align 4
  br label %72

36:                                               ; preds = %2
  %37 = load ptr, ptr %6, align 8, !tbaa !187
  %38 = getelementptr inbounds nuw %struct._zend_func_info, ptr %37, i32 0, i32 2
  %39 = getelementptr inbounds nuw %struct._zend_ssa, ptr %38, i32 0, i32 5
  %40 = load ptr, ptr %39, align 8, !tbaa !231
  %41 = load i32, ptr %8, align 4, !tbaa !29
  %42 = sext i32 %41 to i64
  %43 = getelementptr inbounds %struct._zend_ssa_var, ptr %40, i64 %42
  %44 = getelementptr inbounds nuw %struct._zend_ssa_var, ptr %43, i32 0, i32 5
  %45 = load ptr, ptr %44, align 8, !tbaa !232
  %46 = icmp ne ptr %45, null
  br i1 %46, label %47, label %59

47:                                               ; preds = %36
  %48 = load ptr, ptr %6, align 8, !tbaa !187
  %49 = getelementptr inbounds nuw %struct._zend_func_info, ptr %48, i32 0, i32 2
  %50 = getelementptr inbounds nuw %struct._zend_ssa, ptr %49, i32 0, i32 5
  %51 = load ptr, ptr %50, align 8, !tbaa !231
  %52 = load i32, ptr %8, align 4, !tbaa !29
  %53 = sext i32 %52 to i64
  %54 = getelementptr inbounds %struct._zend_ssa_var, ptr %51, i64 %53
  %55 = getelementptr inbounds nuw %struct._zend_ssa_var, ptr %54, i32 0, i32 5
  %56 = load ptr, ptr %55, align 8, !tbaa !232
  %57 = getelementptr inbounds nuw %struct._zend_ssa_phi, ptr %56, i32 0, i32 4
  %58 = load i32, ptr %57, align 4, !tbaa !235
  store i32 %58, ptr %8, align 4, !tbaa !29
  br label %59

59:                                               ; preds = %47, %36
  call void @llvm.lifetime.start.p0(i64 4, ptr %10) #13
  %60 = load ptr, ptr %6, align 8, !tbaa !187
  %61 = getelementptr inbounds nuw %struct._zend_func_info, ptr %60, i32 0, i32 2
  %62 = getelementptr inbounds nuw %struct._zend_ssa, ptr %61, i32 0, i32 6
  %63 = load ptr, ptr %62, align 8, !tbaa !205
  %64 = load i32, ptr %8, align 4, !tbaa !29
  %65 = sext i32 %64 to i64
  %66 = getelementptr inbounds %struct._zend_ssa_var_info, ptr %63, i64 %65
  %67 = getelementptr inbounds nuw %struct._zend_ssa_var_info, ptr %66, i32 0, i32 0
  %68 = load i32, ptr %67, align 8, !tbaa !238
  store i32 %68, ptr %10, align 4, !tbaa !29
  %69 = load i32, ptr %10, align 4, !tbaa !29
  %70 = and i32 %69, 1984
  %71 = icmp ne i32 %70, 0
  store i1 %71, ptr %3, align 1
  store i32 1, ptr %9, align 4
  call void @llvm.lifetime.end.p0(i64 4, ptr %10) #13
  br label %72

72:                                               ; preds = %59, %35
  call void @llvm.lifetime.end.p0(i64 4, ptr %8) #13
  call void @llvm.lifetime.end.p0(i64 8, ptr %7) #13
  call void @llvm.lifetime.end.p0(i64 8, ptr %6) #13
  %73 = load i1, ptr %3, align 1
  ret i1 %73
}