; Function Attrs: mustprogress nofree norecurse nosync nounwind willreturn memory(read, inaccessiblemem: none) uwtable
define internal zeroext i1 @needs_live_range(ptr noundef readonly captures(none) %0, ptr noundef %1) #10 {
  %3 = getelementptr inbounds nuw i8, ptr %0, i64 208
  %4 = load i32, ptr @zend_func_info_rid, align 4, !tbaa !107
  %5 = sext i32 %4 to i64
  %6 = getelementptr inbounds [6 x ptr], ptr %3, i64 0, i64 %5
  %7 = load ptr, ptr %6, align 8, !tbaa !160
  %8 = getelementptr inbounds nuw i8, ptr %7, i64 64
  %9 = load ptr, ptr %8, align 8, !tbaa !210
  %10 = getelementptr inbounds nuw i8, ptr %0, i64 104
  %11 = load ptr, ptr %10, align 8, !tbaa !98
  %12 = ptrtoint ptr %1 to i64
  %13 = ptrtoint ptr %11 to i64
  %14 = sub i64 %12, %13
  %15 = ashr exact i64 %14, 5
  %16 = getelementptr inbounds %struct._zend_ssa_op, ptr %9, i64 %15, i32 5
  %17 = load i32, ptr %16, align 4, !tbaa !190
  %18 = icmp slt i32 %17, 0
  br i1 %18, label %36, label %19

19:                                               ; preds = %2
  %20 = getelementptr inbounds nuw i8, ptr %7, i64 72
  %21 = load ptr, ptr %20, align 8, !tbaa !211
  %22 = zext nneg i32 %17 to i64
  %23 = getelementptr inbounds nuw %struct._zend_ssa_var, ptr %21, i64 %22, i32 5
  %24 = load ptr, ptr %23, align 8, !tbaa !212
  %.not = icmp eq ptr %24, null
  br i1 %.not, label %28, label %25

25:                                               ; preds = %19
  %26 = getelementptr inbounds nuw i8, ptr %24, i64 68
  %27 = load i32, ptr %26, align 4, !tbaa !215
  br label %28

28:                                               ; preds = %25, %19
  %.013 = phi i32 [ %27, %25 ], [ %17, %19 ]
  %29 = getelementptr inbounds nuw i8, ptr %7, i64 80
  %30 = load ptr, ptr %29, align 8, !tbaa !182
  %31 = sext i32 %.013 to i64
  %32 = getelementptr inbounds %struct._zend_ssa_var_info, ptr %30, i64 %31
  %33 = load i32, ptr %32, align 8, !tbaa !187
  %34 = and i32 %33, 1984
  %35 = icmp ne i32 %34, 0
  br label %36

36:                                               ; preds = %2, %28
  %.0 = phi i1 [ %35, %28 ], [ true, %2 ]
  ret i1 %.0
}